; ModuleID = '40/1980.c'
source_filename = "40/1980.c"
target datalayout = "e-m:e-p270:32:32-p271:32:32-p272:64:64-i64:64-f80:128-n8:16:32:64-S128"
target triple = "x86_64-pc-linux-gnu"

@.str = private unnamed_addr constant [9 x i8] c"%f%f%f%f\00", align 1
@.str.1 = private unnamed_addr constant [3 x i8] c"%f\00", align 1
@.str.2 = private unnamed_addr constant [14 x i8] c"Invalid input\00", align 1
@.str.3 = private unnamed_addr constant [6 x i8] c"%.4lf\00", align 1

; Function Attrs: noinline nounwind uwtable
define dso_local i32 @main() #0 {
  %1 = alloca i32, align 4
  %2 = alloca float, align 4
  %3 = alloca float, align 4
  %4 = alloca float, align 4
  %5 = alloca float, align 4
  %6 = alloca float, align 4
  %7 = alloca float, align 4
  %8 = alloca double, align 8
  %9 = alloca double, align 8
  store i32 0, i32* %1, align 4
  %10 = call i32 (i8*, ...) @__isoc99_scanf(i8* getelementptr inbounds ([9 x i8], [9 x i8]* @.str, i64 0, i64 0), float* %2, float* %3, float* %4, float* %5)
  %11 = load float, float* %2, align 4
  %12 = load float, float* %3, align 4
  %13 = fadd float %11, %12
  %14 = load float, float* %4, align 4
  %15 = fadd float %13, %14
  %16 = load float, float* %5, align 4
  %17 = fadd float %15, %16
  %18 = fdiv float %17, 2.000000e+00
  store float %18, float* %6, align 4
  %19 = call i32 (i8*, ...) @__isoc99_scanf(i8* getelementptr inbounds ([3 x i8], [3 x i8]* @.str.1, i64 0, i64 0), float* %7)
  %20 = load float, float* %7, align 4
  %21 = fdiv float %20, 1.800000e+02
  %22 = fmul float %21, 1.000000e+02
  store float %22, float* %7, align 4
  %23 = load float, float* %6, align 4
  %24 = load float, float* %2, align 4
  %25 = fsub float %23, %24
  %26 = load float, float* %6, align 4
  %27 = load float, float* %3, align 4
  %28 = fsub float %26, %27
  %29 = fmul float %25, %28
  %30 = load float, float* %6, align 4
  %31 = load float, float* %4, align 4
  %32 = fsub float %30, %31
  %33 = fmul float %29, %32
  %34 = load float, float* %6, align 4
  %35 = load float, float* %5, align 4
  %36 = fsub float %34, %35
  %37 = fmul float %33, %36
  %38 = fpext float %37 to double
  %39 = load float, float* %2, align 4
  %40 = load float, float* %3, align 4
  %41 = fmul float %39, %40
  %42 = load float, float* %4, align 4
  %43 = fmul float %41, %42
  %44 = load float, float* %5, align 4
  %45 = fmul float %43, %44
  %46 = fpext float %45 to double
  %47 = load float, float* %7, align 4
  %48 = fdiv float %47, 2.000000e+00
  %49 = fpext float %48 to double
  %50 = call double @cos(double %49) #3
  %51 = fmul double %46, %50
  %52 = load float, float* %7, align 4
  %53 = fdiv float %52, 2.000000e+00
  %54 = fpext float %53 to double
  %55 = call double @cos(double %54) #3
  %56 = fmul double %51, %55
  %57 = fsub double %38, %56
  store double %57, double* %8, align 8
  %58 = load double, double* %8, align 8
  %59 = fcmp olt double %58, 0.000000e+00
  br i1 %59, label %60, label %62

60:                                               ; preds = %0
  %61 = call i32 (i8*, ...) @printf(i8* getelementptr inbounds ([14 x i8], [14 x i8]* @.str.2, i64 0, i64 0))
  br label %67

62:                                               ; preds = %0
  %63 = load double, double* %8, align 8
  %64 = call double @sqrt(double %63) #3
  store double %64, double* %9, align 8
  %65 = load double, double* %9, align 8
  %66 = call i32 (i8*, ...) @printf(i8* getelementptr inbounds ([6 x i8], [6 x i8]* @.str.3, i64 0, i64 0), double %65)
  br label %67

67:                                               ; preds = %62, %60
  ret i32 0
}

declare dso_local i32 @__isoc99_scanf(i8*, ...) #1

; Function Attrs: nounwind
declare dso_local double @cos(double) #2

declare dso_local i32 @printf(i8*, ...) #1

; Function Attrs: nounwind
declare dso_local double @sqrt(double) #2


!llvm.module.flags = !{!0}
!llvm.ident = !{!1}

!0 = !{i32 1, !"wchar_size", i32 4}
!1 = !{!"clang version 10.0.0-4ubuntu1 "}
